; Function Attrs: mustprogress nofree norecurse nosync nounwind memory(read, argmem: readwrite, inaccessiblemem: none) uwtable
define internal noundef i64 @_ZNK5faiss12_GLOBAL__N_118IVFBinaryScannerL2INS_16HammingComputer4EE10scan_codesEmPKhPKlPiPlm(ptr nocapture noundef nonnull readonly align 8 dereferenceable(40) %0, i64 noundef %1, ptr noalias nocapture noundef readonly %2, ptr noalias nocapture noundef readonly %3, ptr noalias nocapture noundef %4, ptr noalias nocapture noundef %5, i64 noundef %6) unnamed_addr #15 align 2 {
  %.not25 = icmp eq i64 %1, 0
  br i1 %.not25, label %._crit_edge, label %.lr.ph

.lr.ph:                                           ; preds = %7
  %8 = getelementptr inbounds i8, ptr %0, i64 8
  %9 = load i32, ptr %8, align 8
  %10 = getelementptr inbounds i8, ptr %0, i64 24
  %11 = load i8, ptr %10, align 8
  %.fr26 = freeze i8 %11
  %12 = and i8 %.fr26, 1
  %.not = icmp eq i8 %12, 0
  %13 = getelementptr inbounds i8, ptr %0, i64 32
  %14 = load i64, ptr %13, align 8
  %15 = shl i64 %14, 32
  %16 = getelementptr inbounds i8, ptr %4, i64 -4
  %17 = getelementptr inbounds i8, ptr %5, i64 -8
  %18 = icmp ult i64 %6, 2
  %.phi.trans.insert.i = getelementptr inbounds i32, ptr %16, i64 %6
  %19 = getelementptr inbounds i8, ptr %0, i64 16
  %20 = load i64, ptr %19, align 8
  br i1 %18, label %.lr.ph.split.us, label %.lr.ph.split

.lr.ph.split.us:                                  ; preds = %.lr.ph
  %.promoted = load i32, ptr %4, align 4
  br i1 %.not, label %.lr.ph.split.us.split.us, label %.lr.ph.split.us.split

.lr.ph.split.us.split.us:                         ; preds = %.lr.ph.split.us, %29
  %21 = phi i32 [ %30, %29 ], [ %.promoted, %.lr.ph.split.us ]
  %.023.us.us = phi ptr [ %31, %29 ], [ %2, %.lr.ph.split.us ]
  %.01722.us.us = phi i64 [ %.1.us.us, %29 ], [ 0, %.lr.ph.split.us ]
  %.01820.us.us = phi i64 [ %32, %29 ], [ 0, %.lr.ph.split.us ]
  %22 = load i32, ptr %.023.us.us, align 4
  %23 = xor i32 %9, %22
  %24 = tail call noundef i32 @llvm.ctpop.i32(i32 %23), !range !206
  %25 = icmp ult i32 %24, %21
  br i1 %25, label %_ZN5faiss16heap_replace_topINS_4CMaxIilEEEEvmPNT_1TEPNS3_2TIES4_S6_.exit.us.us, label %29

_ZN5faiss16heap_replace_topINS_4CMaxIilEEEEvmPNT_1TEPNS3_2TIES4_S6_.exit.us.us: ; preds = %.lr.ph.split.us.split.us
  %26 = getelementptr inbounds i64, ptr %3, i64 %.01820.us.us
  %27 = load i64, ptr %26, align 8
  store i32 %24, ptr %4, align 4
  store i64 %27, ptr %5, align 8
  %28 = add i64 %.01722.us.us, 1
  br label %29

29:                                               ; preds = %_ZN5faiss16heap_replace_topINS_4CMaxIilEEEEvmPNT_1TEPNS3_2TIES4_S6_.exit.us.us, %.lr.ph.split.us.split.us
  %30 = phi i32 [ %24, %_ZN5faiss16heap_replace_topINS_4CMaxIilEEEEvmPNT_1TEPNS3_2TIES4_S6_.exit.us.us ], [ %21, %.lr.ph.split.us.split.us ]
  %.1.us.us = phi i64 [ %28, %_ZN5faiss16heap_replace_topINS_4CMaxIilEEEEvmPNT_1TEPNS3_2TIES4_S6_.exit.us.us ], [ %.01722.us.us, %.lr.ph.split.us.split.us ]
  %31 = getelementptr inbounds i8, ptr %.023.us.us, i64 %20
  %32 = add nuw i64 %.01820.us.us, 1
  %exitcond30.not = icmp eq i64 %32, %1
  br i1 %exitcond30.not, label %._crit_edge, label %.lr.ph.split.us.split.us, !llvm.loop !207

.lr.ph.split.us.split:                            ; preds = %.lr.ph.split.us, %40
  %33 = phi i32 [ %41, %40 ], [ %.promoted, %.lr.ph.split.us ]
  %.023.us = phi ptr [ %42, %40 ], [ %2, %.lr.ph.split.us ]
  %.01722.us = phi i64 [ %.1.us, %40 ], [ 0, %.lr.ph.split.us ]
  %.01820.us = phi i64 [ %43, %40 ], [ 0, %.lr.ph.split.us ]
  %34 = load i32, ptr %.023.us, align 4
  %35 = xor i32 %9, %34
  %36 = tail call noundef i32 @llvm.ctpop.i32(i32 %35), !range !206
  %37 = icmp ult i32 %36, %33
  br i1 %37, label %_ZN5faiss16heap_replace_topINS_4CMaxIilEEEEvmPNT_1TEPNS3_2TIES4_S6_.exit.us, label %40

_ZN5faiss16heap_replace_topINS_4CMaxIilEEEEvmPNT_1TEPNS3_2TIES4_S6_.exit.us: ; preds = %.lr.ph.split.us.split
  %38 = or i64 %15, %.01820.us
  store i32 %36, ptr %4, align 4
  store i64 %38, ptr %5, align 8
  %39 = add i64 %.01722.us, 1
  br label %40

40:                                               ; preds = %_ZN5faiss16heap_replace_topINS_4CMaxIilEEEEvmPNT_1TEPNS3_2TIES4_S6_.exit.us, %.lr.ph.split.us.split
  %41 = phi i32 [ %36, %_ZN5faiss16heap_replace_topINS_4CMaxIilEEEEvmPNT_1TEPNS3_2TIES4_S6_.exit.us ], [ %33, %.lr.ph.split.us.split ]
  %.1.us = phi i64 [ %39, %_ZN5faiss16heap_replace_topINS_4CMaxIilEEEEvmPNT_1TEPNS3_2TIES4_S6_.exit.us ], [ %.01722.us, %.lr.ph.split.us.split ]
  %42 = getelementptr inbounds i8, ptr %.023.us, i64 %20
  %43 = add nuw i64 %.01820.us, 1
  %exitcond29.not = icmp eq i64 %43, %1
  br i1 %exitcond29.not, label %._crit_edge, label %.lr.ph.split.us.split, !llvm.loop !207

.lr.ph.split:                                     ; preds = %.lr.ph, %94
  %.023 = phi ptr [ %95, %94 ], [ %2, %.lr.ph ]
  %.01722 = phi i64 [ %.1, %94 ], [ 0, %.lr.ph ]
  %.01820 = phi i64 [ %96, %94 ], [ 0, %.lr.ph ]
  %44 = load i32, ptr %.023, align 4
  %45 = xor i32 %9, %44
  %46 = tail call noundef i32 @llvm.ctpop.i32(i32 %45), !range !206
  %47 = load i32, ptr %4, align 4
  %48 = icmp ult i32 %46, %47
  br i1 %48, label %49, label %94

49:                                               ; preds = %.lr.ph.split
  br i1 %.not, label %52, label %50

50:                                               ; preds = %49
  %51 = or i64 %15, %.01820
  br label %.lr.ph.preheader.i

52:                                               ; preds = %49
  %53 = getelementptr inbounds i64, ptr %3, i64 %.01820
  %54 = load i64, ptr %53, align 8
  br label %.lr.ph.preheader.i

.lr.ph.preheader.i:                               ; preds = %52, %50
  %55 = phi i64 [ %51, %50 ], [ %54, %52 ]
  br label %.lr.ph.i

.lr.ph.i:                                         ; preds = %84, %.lr.ph.preheader.i
  %56 = phi i64 [ %89, %84 ], [ 3, %.lr.ph.preheader.i ]
  %57 = phi i64 [ %88, %84 ], [ 2, %.lr.ph.preheader.i ]
  %.056.i = phi i64 [ %.1.i, %84 ], [ 1, %.lr.ph.preheader.i ]
  %58 = icmp eq i64 %57, %6
  br i1 %58, label %.lr.ph._ZN5faiss4CMaxIilE4cmp2Eiill.exit.thread_crit_edge.i, label %59

.lr.ph._ZN5faiss4CMaxIilE4cmp2Eiill.exit.thread_crit_edge.i: ; preds = %.lr.ph.i
  %.pre.i = load i32, ptr %.phi.trans.insert.i, align 4
  br label %_ZN5faiss4CMaxIilE4cmp2Eiill.exit.thread.i

59:                                               ; preds = %.lr.ph.i
  %60 = getelementptr inbounds i32, ptr %16, i64 %57
  %61 = load i32, ptr %60, align 4
  %62 = getelementptr inbounds i32, ptr %16, i64 %56
  %63 = load i32, ptr %62, align 4
  %64 = getelementptr inbounds i64, ptr %17, i64 %56
  %65 = load i64, ptr %64, align 8
  %66 = icmp sgt i32 %61, %63
  br i1 %66, label %_ZN5faiss4CMaxIilE4cmp2Eiill.exit.thread.i, label %_ZN5faiss4CMaxIilE4cmp2Eiill.exit.i

_ZN5faiss4CMaxIilE4cmp2Eiill.exit.i:              ; preds = %59
  %67 = getelementptr inbounds i64, ptr %17, i64 %57
  %68 = load i64, ptr %67, align 8
  %69 = icmp eq i32 %61, %63
  %70 = icmp sgt i64 %68, %65
  %71 = and i1 %69, %70
  br i1 %71, label %_ZN5faiss4CMaxIilE4cmp2Eiill.exit.thread.i, label %79

_ZN5faiss4CMaxIilE4cmp2Eiill.exit.thread.i:       ; preds = %_ZN5faiss4CMaxIilE4cmp2Eiill.exit.i, %59, %.lr.ph._ZN5faiss4CMaxIilE4cmp2Eiill.exit.thread_crit_edge.i
  %72 = phi i32 [ %.pre.i, %.lr.ph._ZN5faiss4CMaxIilE4cmp2Eiill.exit.thread_crit_edge.i ], [ %61, %59 ], [ %61, %_ZN5faiss4CMaxIilE4cmp2Eiill.exit.i ]
  %73 = icmp slt i32 %72, %46
  br i1 %73, label %_ZN5faiss16heap_replace_topINS_4CMaxIilEEEEvmPNT_1TEPNS3_2TIES4_S6_.exit.loopexit, label %_ZN5faiss4CMaxIilE4cmp2Eiill.exit54.i

_ZN5faiss4CMaxIilE4cmp2Eiill.exit54.i:            ; preds = %_ZN5faiss4CMaxIilE4cmp2Eiill.exit.thread.i
  %74 = getelementptr inbounds i64, ptr %17, i64 %57
  %75 = load i64, ptr %74, align 8
  %76 = icmp eq i32 %72, %46
  %77 = icmp slt i64 %75, %55
  %78 = and i1 %76, %77
  br i1 %78, label %_ZN5faiss16heap_replace_topINS_4CMaxIilEEEEvmPNT_1TEPNS3_2TIES4_S6_.exit.loopexit, label %84

79:                                               ; preds = %_ZN5faiss4CMaxIilE4cmp2Eiill.exit.i
  %80 = icmp slt i32 %63, %46
  br i1 %80, label %_ZN5faiss16heap_replace_topINS_4CMaxIilEEEEvmPNT_1TEPNS3_2TIES4_S6_.exit.loopexit, label %_ZN5faiss4CMaxIilE4cmp2Eiill.exit55.i

_ZN5faiss4CMaxIilE4cmp2Eiill.exit55.i:            ; preds = %79
  %81 = icmp eq i32 %63, %46
  %82 = icmp slt i64 %65, %55
  %83 = and i1 %81, %82
  br i1 %83, label %_ZN5faiss16heap_replace_topINS_4CMaxIilEEEEvmPNT_1TEPNS3_2TIES4_S6_.exit.loopexit, label %84

84:                                               ; preds = %_ZN5faiss4CMaxIilE4cmp2Eiill.exit55.i, %_ZN5faiss4CMaxIilE4cmp2Eiill.exit54.i
  %85 = phi i64 [ %75, %_ZN5faiss4CMaxIilE4cmp2Eiill.exit54.i ], [ %65, %_ZN5faiss4CMaxIilE4cmp2Eiill.exit55.i ]
  %.sink.i = phi i32 [ %72, %_ZN5faiss4CMaxIilE4cmp2Eiill.exit54.i ], [ %63, %_ZN5faiss4CMaxIilE4cmp2Eiill.exit55.i ]
  %.1.i = phi i64 [ %57, %_ZN5faiss4CMaxIilE4cmp2Eiill.exit54.i ], [ %56, %_ZN5faiss4CMaxIilE4cmp2Eiill.exit55.i ]
  %86 = getelementptr inbounds i32, ptr %16, i64 %.056.i
  store i32 %.sink.i, ptr %86, align 4
  %87 = getelementptr inbounds i64, ptr %17, i64 %.056.i
  store i64 %85, ptr %87, align 8
  %88 = shl i64 %.1.i, 1
  %89 = or disjoint i64 %88, 1
  %90 = icmp ugt i64 %88, %6
  br i1 %90, label %_ZN5faiss16heap_replace_topINS_4CMaxIilEEEEvmPNT_1TEPNS3_2TIES4_S6_.exit.loopexit, label %.lr.ph.i, !llvm.loop !208

_ZN5faiss16heap_replace_topINS_4CMaxIilEEEEvmPNT_1TEPNS3_2TIES4_S6_.exit.loopexit: ; preds = %84, %_ZN5faiss4CMaxIilE4cmp2Eiill.exit55.i, %79, %_ZN5faiss4CMaxIilE4cmp2Eiill.exit54.i, %_ZN5faiss4CMaxIilE4cmp2Eiill.exit.thread.i
  %.0.lcssa.i.ph = phi i64 [ %.1.i, %84 ], [ %.056.i, %_ZN5faiss4CMaxIilE4cmp2Eiill.exit54.i ], [ %.056.i, %_ZN5faiss4CMaxIilE4cmp2Eiill.exit55.i ], [ %.056.i, %_ZN5faiss4CMaxIilE4cmp2Eiill.exit.thread.i ], [ %.056.i, %79 ]
  %91 = getelementptr inbounds i32, ptr %16, i64 %.0.lcssa.i.ph
  store i32 %46, ptr %91, align 4
  %92 = getelementptr inbounds i64, ptr %17, i64 %.0.lcssa.i.ph
  store i64 %55, ptr %92, align 8
  %93 = add i64 %.01722, 1
  br label %94

94:                                               ; preds = %_ZN5faiss16heap_replace_topINS_4CMaxIilEEEEvmPNT_1TEPNS3_2TIES4_S6_.exit.loopexit, %.lr.ph.split
  %.1 = phi i64 [ %93, %_ZN5faiss16heap_replace_topINS_4CMaxIilEEEEvmPNT_1TEPNS3_2TIES4_S6_.exit.loopexit ], [ %.01722, %.lr.ph.split ]
  %95 = getelementptr inbounds i8, ptr %.023, i64 %20
  %96 = add nuw i64 %.01820, 1
  %exitcond.not = icmp eq i64 %96, %1
  br i1 %exitcond.not, label %._crit_edge, label %.lr.ph.split, !llvm.loop !207

._crit_edge:                                      ; preds = %94, %40, %29, %7
  %.017.lcssa = phi i64 [ 0, %7 ], [ %.1.us.us, %29 ], [ %.1.us, %40 ], [ %.1, %94 ]
  ret i64 %.017.lcssa
}